; Function Attrs: nounwind uwtable
define dso_local i64 @zslDeleteRangeByScore(ptr noundef captures(none) %0, ptr noundef readonly captures(none) %1, ptr noundef %2) local_unnamed_addr #0 {
  %4 = alloca [32 x ptr], align 16
  call void @llvm.lifetime.start.p0(i64 256, ptr nonnull %4) #18
  %5 = load ptr, ptr %0, align 8, !tbaa !18
  %6 = getelementptr inbounds nuw i8, ptr %0, i64 24
  %7 = load i32, ptr %6, align 8, !tbaa !12
  %8 = icmp sgt i32 %7, 0
  br i1 %8, label %.preheader.lr.ph, label %._crit_edge

.preheader.lr.ph:                                 ; preds = %3
  %9 = getelementptr inbounds nuw i8, ptr %1, i64 16
  %10 = zext nneg i32 %7 to i64
  br label %.preheader

.preheader:                                       ; preds = %.preheader.lr.ph, %.critedge
  %indvars.iv = phi i64 [ %10, %.preheader.lr.ph ], [ %indvars.iv.next, %.critedge ]
  %.037 = phi ptr [ %5, %.preheader.lr.ph ], [ %.1, %.critedge ]
  %indvars.iv.next = add nsw i64 %indvars.iv, -1
  br label %11

11:                                               ; preds = %.preheader, %15
  %.1 = phi ptr [ %14, %15 ], [ %.037, %.preheader ]
  %12 = getelementptr inbounds nuw i8, ptr %.1, i64 24
  %13 = getelementptr inbounds [0 x %struct.zskiplistLevel], ptr %12, i64 0, i64 %indvars.iv.next
  %14 = load ptr, ptr %13, align 8, !tbaa !20
  %.not31 = icmp eq ptr %14, null
  br i1 %.not31, label %.critedge, label %15

15:                                               ; preds = %11
  %16 = getelementptr inbounds nuw i8, ptr %14, i64 8
  %17 = load double, ptr %16, align 8, !tbaa !5
  %18 = load i32, ptr %9, align 8, !tbaa !41
  %.not.i = icmp eq i32 %18, 0
  %19 = load double, ptr %1, align 8, !tbaa !43
  %20 = fcmp ule double %17, %19
  %21 = fcmp ult double %17, %19
  %.in.i = select i1 %.not.i, i1 %21, i1 %20
  br i1 %.in.i, label %11, label %.critedge, !llvm.loop !55

.critedge:                                        ; preds = %11, %15
  %22 = getelementptr inbounds [32 x ptr], ptr %4, i64 0, i64 %indvars.iv.next
  store ptr %.1, ptr %22, align 8, !tbaa !29
  %23 = icmp sgt i64 %indvars.iv, 1
  br i1 %23, label %.preheader, label %._crit_edge, !llvm.loop !56

._crit_edge:                                      ; preds = %.critedge, %3
  %.0.lcssa = phi ptr [ %5, %3 ], [ %.1, %.critedge ]
  %24 = getelementptr inbounds nuw i8, ptr %.0.lcssa, i64 24
  %25 = load ptr, ptr %24, align 8, !tbaa !20
  %.not39 = icmp eq ptr %25, null
  br i1 %.not39, label %.critedge2, label %.lr.ph

.lr.ph:                                           ; preds = %._crit_edge
  %26 = getelementptr inbounds nuw i8, ptr %1, i64 20
  %27 = getelementptr inbounds nuw i8, ptr %1, i64 8
  %28 = getelementptr inbounds nuw i8, ptr %0, i64 8
  %29 = getelementptr inbounds nuw i8, ptr %0, i64 16
  br label %30

30:                                               ; preds = %.lr.ph, %zslDeleteNode.exit
  %.241 = phi ptr [ %25, %.lr.ph ], [ %39, %zslDeleteNode.exit ]
  %.02840 = phi i64 [ 0, %.lr.ph ], [ %86, %zslDeleteNode.exit ]
  %31 = getelementptr inbounds nuw i8, ptr %.241, i64 8
  %32 = load double, ptr %31, align 8, !tbaa !5
  %33 = load i32, ptr %26, align 4, !tbaa !44
  %.not.i33 = icmp eq i32 %33, 0
  %34 = load double, ptr %27, align 8, !tbaa !45
  %35 = fcmp uge double %32, %34
  %36 = fcmp ugt double %32, %34
  %.in.i34 = select i1 %.not.i33, i1 %36, i1 %35
  br i1 %.in.i34, label %.critedge2, label %37

37:                                               ; preds = %30
  %38 = getelementptr inbounds nuw i8, ptr %.241, i64 24
  %39 = load ptr, ptr %38, align 8, !tbaa !20
  %40 = load i32, ptr %6, align 8, !tbaa !12
  %41 = icmp sgt i32 %40, 0
  br i1 %41, label %.lr.ph.i, label %._crit_edge.i

.lr.ph.i:                                         ; preds = %37
  %wide.trip.count.i = zext nneg i32 %40 to i64
  br label %42

42:                                               ; preds = %62, %.lr.ph.i
  %indvars.iv.i = phi i64 [ 0, %.lr.ph.i ], [ %indvars.iv.next.i, %62 ]
  %43 = getelementptr inbounds nuw ptr, ptr %4, i64 %indvars.iv.i
  %44 = load ptr, ptr %43, align 8, !tbaa !29
  %45 = getelementptr inbounds nuw i8, ptr %44, i64 24
  %46 = getelementptr inbounds nuw [0 x %struct.zskiplistLevel], ptr %45, i64 0, i64 %indvars.iv.i
  %47 = load ptr, ptr %46, align 8, !tbaa !20
  %48 = icmp eq ptr %47, %.241
  br i1 %48, label %49, label %58

49:                                               ; preds = %42
  %50 = getelementptr inbounds nuw [0 x %struct.zskiplistLevel], ptr %38, i64 0, i64 %indvars.iv.i
  %51 = getelementptr inbounds nuw i8, ptr %50, i64 8
  %52 = load i64, ptr %51, align 8, !tbaa !27
  %53 = add i64 %52, -1
  %54 = getelementptr inbounds nuw i8, ptr %46, i64 8
  %55 = load i64, ptr %54, align 8, !tbaa !27
  %56 = add i64 %53, %55
  store i64 %56, ptr %54, align 8, !tbaa !27
  %57 = load ptr, ptr %50, align 8, !tbaa !20
  store ptr %57, ptr %46, align 8, !tbaa !20
  br label %62

58:                                               ; preds = %42
  %59 = getelementptr inbounds nuw i8, ptr %46, i64 8
  %60 = load i64, ptr %59, align 8, !tbaa !27
  %61 = add i64 %60, -1
  store i64 %61, ptr %59, align 8, !tbaa !27
  br label %62

62:                                               ; preds = %58, %49
  %indvars.iv.next.i = add nuw nsw i64 %indvars.iv.i, 1
  %exitcond.not.i = icmp eq i64 %indvars.iv.next.i, %wide.trip.count.i
  br i1 %exitcond.not.i, label %._crit_edge.ithread-pre-split, label %42, !llvm.loop !34

._crit_edge.ithread-pre-split:                    ; preds = %62
  %.pr = load ptr, ptr %38, align 8, !tbaa !20
  br label %._crit_edge.i

._crit_edge.i:                                    ; preds = %._crit_edge.ithread-pre-split, %37
  %63 = phi ptr [ %.pr, %._crit_edge.ithread-pre-split ], [ %39, %37 ]
  %.not.i35 = icmp eq ptr %63, null
  %64 = getelementptr inbounds nuw i8, ptr %.241, i64 16
  %65 = load ptr, ptr %64, align 8, !tbaa !29
  br i1 %.not.i35, label %68, label %66

66:                                               ; preds = %._crit_edge.i
  %67 = getelementptr inbounds nuw i8, ptr %63, i64 16
  store ptr %65, ptr %67, align 8, !tbaa !29
  br label %69

68:                                               ; preds = %._crit_edge.i
  store ptr %65, ptr %28, align 8, !tbaa !19
  br label %69

69:                                               ; preds = %68, %66
  %70 = icmp sgt i32 %40, 1
  br i1 %70, label %.lr.ph34.i, label %zslDeleteNode.exit

.lr.ph34.i:                                       ; preds = %69
  %71 = load ptr, ptr %0, align 8, !tbaa !18
  %72 = getelementptr inbounds nuw i8, ptr %71, i64 24
  %73 = zext nneg i32 %40 to i64
  br label %74

74:                                               ; preds = %78, %.lr.ph34.i
  %indvars.iv37.i = phi i64 [ %73, %.lr.ph34.i ], [ %indvars.iv.next38.i, %78 ]
  %indvars.iv.next38.i = add nsw i64 %indvars.iv37.i, -1
  %75 = getelementptr inbounds nuw [0 x %struct.zskiplistLevel], ptr %72, i64 0, i64 %indvars.iv.next38.i
  %76 = load ptr, ptr %75, align 8, !tbaa !20
  %77 = icmp eq ptr %76, null
  br i1 %77, label %78, label %zslDeleteNode.exit

78:                                               ; preds = %74
  %79 = trunc nuw nsw i64 %indvars.iv.next38.i to i32
  store i32 %79, ptr %6, align 8, !tbaa !12
  %80 = icmp samesign ugt i64 %indvars.iv37.i, 2
  br i1 %80, label %74, label %zslDeleteNode.exit, !llvm.loop !35

zslDeleteNode.exit:                               ; preds = %74, %78, %69
  %81 = load i64, ptr %29, align 8, !tbaa !17
  %82 = add i64 %81, -1
  store i64 %82, ptr %29, align 8, !tbaa !17
  %83 = load ptr, ptr %.241, align 8, !tbaa !9
  %84 = tail call i32 @dictDelete(ptr noundef %2, ptr noundef %83) #18
  %85 = load ptr, ptr %.241, align 8, !tbaa !9
  tail call void @sdsfree(ptr noundef %85) #18
  tail call void @zfree(ptr noundef nonnull %.241) #18
  %86 = add i64 %.02840, 1
  %.not = icmp eq ptr %39, null
  br i1 %.not, label %.critedge2, label %30, !llvm.loop !57

.critedge2:                                       ; preds = %30, %zslDeleteNode.exit, %._crit_edge
  %.028.lcssa = phi i64 [ 0, %._crit_edge ], [ %86, %zslDeleteNode.exit ], [ %.02840, %30 ]
  call void @llvm.lifetime.end.p0(i64 256, ptr nonnull %4) #18
  ret i64 %.028.lcssa
}